target datalayout = "e-m:e-p270:32:32-p271:32:32-p272:64:64-i64:64-i128:128-f80:128-n8:16:32:64-S128"
target triple = "x86_64-pc-linux-gnu"

%struct._DOT11DECRYPT_KEY_ITEM = type { i8, %union.DOT11DECRYPT_KEY_ITEMDATA, %struct.DOT11DECRYPT_KEY_ITEMDATA_TK, %struct.DOT11DECRYPT_KEY_ITEMDATA_MSK, %struct.DOT11DECRYPT_KEY_ITEMDATA_PWD }
%union.DOT11DECRYPT_KEY_ITEMDATA = type { %struct.DOT11DECRYPT_KEY_ITEMDATA_WEP, [104 x i8] }
%struct.DOT11DECRYPT_KEY_ITEMDATA_WEP = type { [32 x i8], i64 }
%struct.DOT11DECRYPT_KEY_ITEMDATA_TK = type { [32 x i8], i8 }
%struct.DOT11DECRYPT_KEY_ITEMDATA_MSK = type { [128 x i8], i8 }
%struct.DOT11DECRYPT_KEY_ITEMDATA_PWD = type { [63 x i8], i64, [32 x i8], i64 }
%struct.DOT11DECRYPT_KEY_ITEMDATA_WPA = type { [48 x i8], [88 x i8], i8, i8, i8, i8 }

@.str = private unnamed_addr constant [13 x i8] c"dot11decrypt\00", align 1
@.str.1 = private unnamed_addr constant [26 x i8] c"epan/crypt/dot11decrypt.c\00", align 1
@__func__.Dot11DecryptGetTkLen = private unnamed_addr constant [21 x i8] c"Dot11DecryptGetTkLen\00", align 1
@.str.48 = private unnamed_addr constant [15 x i8] c"Unknown cipher\00", align 1
@__func__.Dot11DecryptGetKckLen = private unnamed_addr constant [22 x i8] c"Dot11DecryptGetKckLen\00", align 1
@.str.49 = private unnamed_addr constant [12 x i8] c"Unknown akm\00", align 1
@__func__.Dot11DecryptGetKekLen = private unnamed_addr constant [22 x i8] c"Dot11DecryptGetKekLen\00", align 1

; Function Attrs: null_pointer_is_valid sspstrong uwtable
define internal i32 @Dot11DecryptGetTkLen(i32 noundef %0) #0 {
  %2 = alloca i32, align 4
  %3 = alloca i32, align 4
  store i32 %0, ptr %3, align 4
  %4 = load i32, ptr %3, align 4
  switch i32 %4, label %18 [
    i32 1, label %5
    i32 2, label %6
    i32 3, label %7
    i32 4, label %8
    i32 5, label %9
    i32 6, label %10
    i32 7, label %11
    i32 8, label %12
    i32 9, label %13
    i32 10, label %14
    i32 11, label %15
    i32 12, label %16
    i32 13, label %17
  ]

5:                                                ; preds = %1
  store i32 40, ptr %2, align 4
  br label %21

6:                                                ; preds = %1
  store i32 256, ptr %2, align 4
  br label %21

7:                                                ; preds = %1
  store i32 -1, ptr %2, align 4
  br label %21

8:                                                ; preds = %1
  store i32 128, ptr %2, align 4
  br label %21

9:                                                ; preds = %1
  store i32 104, ptr %2, align 4
  br label %21

10:                                               ; preds = %1
  store i32 128, ptr %2, align 4
  br label %21

11:                                               ; preds = %1
  store i32 -1, ptr %2, align 4
  br label %21

12:                                               ; preds = %1
  store i32 128, ptr %2, align 4
  br label %21

13:                                               ; preds = %1
  store i32 256, ptr %2, align 4
  br label %21

14:                                               ; preds = %1
  store i32 256, ptr %2, align 4
  br label %21

15:                                               ; preds = %1
  store i32 128, ptr %2, align 4
  br label %21

16:                                               ; preds = %1
  store i32 256, ptr %2, align 4
  br label %21

17:                                               ; preds = %1
  store i32 256, ptr %2, align 4
  br label %21

18:                                               ; preds = %1
  br label %19

19:                                               ; preds = %18
  call void (ptr, i32, ptr, i64, ptr, ptr, ...) @ws_log_full(ptr noundef @.str, i32 noundef 5, ptr noundef @.str.1, i64 noundef 2362, ptr noundef @__func__.Dot11DecryptGetTkLen, ptr noundef @.str.48)
  br label %20

20:                                               ; preds = %19
  store i32 -1, ptr %2, align 4
  br label %21

21:                                               ; preds = %20, %17, %16, %15, %14, %13, %12, %11, %10, %9, %8, %7, %6, %5
  %22 = load i32, ptr %2, align 4
  ret i32 %22
}

; Function Attrs: null_pointer_is_valid sspstrong uwtable
define internal i32 @Dot11DecryptGetKekLen(i32 noundef %0) #0 {
  %2 = alloca i32, align 4
  %3 = alloca i32, align 4
  store i32 %0, ptr %3, align 4
  %4 = load i32, ptr %3, align 4
  switch i32 %4, label %17 [
    i32 1, label %5
    i32 2, label %6
    i32 3, label %7
    i32 4, label %8
    i32 5, label %9
    i32 6, label %10
    i32 8, label %11
    i32 9, label %12
    i32 11, label %13
    i32 12, label %14
    i32 13, label %15
    i32 18, label %16
  ]

5:                                                ; preds = %1
  store i32 128, ptr %2, align 4
  br label %20

6:                                                ; preds = %1
  store i32 128, ptr %2, align 4
  br label %20

7:                                                ; preds = %1
  store i32 128, ptr %2, align 4
  br label %20

8:                                                ; preds = %1
  store i32 128, ptr %2, align 4
  br label %20

9:                                                ; preds = %1
  store i32 128, ptr %2, align 4
  br label %20

10:                                               ; preds = %1
  store i32 128, ptr %2, align 4
  br label %20

11:                                               ; preds = %1
  store i32 128, ptr %2, align 4
  br label %20

12:                                               ; preds = %1
  store i32 128, ptr %2, align 4
  br label %20

13:                                               ; preds = %1
  store i32 128, ptr %2, align 4
  br label %20

14:                                               ; preds = %1
  store i32 256, ptr %2, align 4
  br label %20

15:                                               ; preds = %1
  store i32 256, ptr %2, align 4
  br label %20

16:                                               ; preds = %1
  store i32 128, ptr %2, align 4
  br label %20

17:                                               ; preds = %1
  br label %18

18:                                               ; preds = %17
  call void (ptr, i32, ptr, i64, ptr, ptr, ...) @ws_log_full(ptr noundef @.str, i32 noundef 5, ptr noundef @.str.1, i64 noundef 2408, ptr noundef @__func__.Dot11DecryptGetKekLen, ptr noundef @.str.49)
  br label %19

19:                                               ; preds = %18
  store i32 -1, ptr %2, align 4
  br label %20

20:                                               ; preds = %19, %16, %15, %14, %13, %12, %11, %10, %9, %8, %7, %6, %5
  %21 = load i32, ptr %2, align 4
  ret i32 %21
}

; Function Attrs: null_pointer_is_valid sspstrong uwtable
define internal i32 @Dot11DecryptGetKckLen(i32 noundef %0) #0 {
  %2 = alloca i32, align 4
  %3 = alloca i32, align 4
  store i32 %0, ptr %3, align 4
  %4 = load i32, ptr %3, align 4
  switch i32 %4, label %17 [
    i32 1, label %5
    i32 2, label %6
    i32 3, label %7
    i32 4, label %8
    i32 5, label %9
    i32 6, label %10
    i32 8, label %11
    i32 9, label %12
    i32 11, label %13
    i32 12, label %14
    i32 13, label %15
    i32 18, label %16
  ]

5:                                                ; preds = %1
  store i32 128, ptr %2, align 4
  br label %20

6:                                                ; preds = %1
  store i32 128, ptr %2, align 4
  br label %20

7:                                                ; preds = %1
  store i32 128, ptr %2, align 4
  br label %20

8:                                                ; preds = %1
  store i32 128, ptr %2, align 4
  br label %20

9:                                                ; preds = %1
  store i32 128, ptr %2, align 4
  br label %20

10:                                               ; preds = %1
  store i32 128, ptr %2, align 4
  br label %20

11:                                               ; preds = %1
  store i32 128, ptr %2, align 4
  br label %20

12:                                               ; preds = %1
  store i32 128, ptr %2, align 4
  br label %20

13:                                               ; preds = %1
  store i32 128, ptr %2, align 4
  br label %20

14:                                               ; preds = %1
  store i32 192, ptr %2, align 4
  br label %20

15:                                               ; preds = %1
  store i32 192, ptr %2, align 4
  br label %20

16:                                               ; preds = %1
  store i32 128, ptr %2, align 4
  br label %20

17:                                               ; preds = %1
  br label %18

18:                                               ; preds = %17
  call void (ptr, i32, ptr, i64, ptr, ptr, ...) @ws_log_full(ptr noundef @.str, i32 noundef 5, ptr noundef @.str.1, i64 noundef 2385, ptr noundef @__func__.Dot11DecryptGetKckLen, ptr noundef @.str.49)
  br label %19

19:                                               ; preds = %18
  store i32 -1, ptr %2, align 4
  br label %20

20:                                               ; preds = %19, %16, %15, %14, %13, %12, %11, %10, %9, %8, %7, %6, %5
  %21 = load i32, ptr %2, align 4
  ret i32 %21
}

; Function Attrs: null_pointer_is_valid sspstrong uwtable
define hidden i32 @Dot11DecryptGetTK(ptr noundef %0, ptr noundef %1) #0 {
  %3 = alloca i32, align 4
  %4 = alloca ptr, align 8
  %5 = alloca ptr, align 8
  %6 = alloca i32, align 4
  %7 = alloca i32, align 4
  store ptr %0, ptr %4, align 8
  store ptr %1, ptr %5, align 8
  call void @llvm.lifetime.start.p0(i64 4, ptr %6) #16
  %8 = load ptr, ptr %4, align 8
  %9 = icmp ne ptr %8, null
  br i1 %9, label %10, label %13

10:                                               ; preds = %2
  %11 = load ptr, ptr %5, align 8
  %12 = icmp ne ptr %11, null
  br i1 %12, label %14, label %13

13:                                               ; preds = %10, %2
  store i32 0, ptr %3, align 4
  store i32 1, ptr %7, align 4
  br label %60

14:                                               ; preds = %10
  %15 = load ptr, ptr %4, align 8
  %16 = getelementptr inbounds nuw %struct._DOT11DECRYPT_KEY_ITEM, ptr %15, i32 0, i32 0
  %17 = load i8, ptr %16, align 8
  %18 = zext i8 %17 to i32
  %19 = icmp eq i32 %18, 100
  br i1 %19, label %20, label %27

20:                                               ; preds = %14
  %21 = load ptr, ptr %4, align 8
  %22 = getelementptr inbounds nuw %struct._DOT11DECRYPT_KEY_ITEM, ptr %21, i32 0, i32 1
  %23 = getelementptr inbounds nuw %struct.DOT11DECRYPT_KEY_ITEMDATA_WPA, ptr %22, i32 0, i32 1
  %24 = getelementptr inbounds [88 x i8], ptr %23, i64 0, i64 0
  %25 = getelementptr i8, ptr %24, i64 32
  %26 = load ptr, ptr %5, align 8
  store ptr %25, ptr %26, align 8
  store i32 16, ptr %6, align 4
  br label %58

27:                                               ; preds = %14
  %28 = load ptr, ptr %4, align 8
  %29 = getelementptr inbounds nuw %struct._DOT11DECRYPT_KEY_ITEM, ptr %28, i32 0, i32 1
  %30 = getelementptr inbounds nuw %struct.DOT11DECRYPT_KEY_ITEMDATA_WPA, ptr %29, i32 0, i32 1
  %31 = getelementptr inbounds [88 x i8], ptr %30, i64 0, i64 0
  %32 = load ptr, ptr %4, align 8
  %33 = getelementptr inbounds nuw %struct._DOT11DECRYPT_KEY_ITEM, ptr %32, i32 0, i32 1
  %34 = getelementptr inbounds nuw %struct.DOT11DECRYPT_KEY_ITEMDATA_WPA, ptr %33, i32 0, i32 4
  %35 = load i8, ptr %34, align 2
  %36 = zext i8 %35 to i32
  %37 = call i32 @Dot11DecryptGetKckLen(i32 noundef %36)
  %38 = sdiv i32 %37, 8
  %39 = add i32 0, %38
  %40 = load ptr, ptr %4, align 8
  %41 = getelementptr inbounds nuw %struct._DOT11DECRYPT_KEY_ITEM, ptr %40, i32 0, i32 1
  %42 = getelementptr inbounds nuw %struct.DOT11DECRYPT_KEY_ITEMDATA_WPA, ptr %41, i32 0, i32 4
  %43 = load i8, ptr %42, align 2
  %44 = zext i8 %43 to i32
  %45 = call i32 @Dot11DecryptGetKekLen(i32 noundef %44)
  %46 = sdiv i32 %45, 8
  %47 = add i32 %39, %46
  %48 = sext i32 %47 to i64
  %49 = getelementptr i8, ptr %31, i64 %48
  %50 = load ptr, ptr %5, align 8
  store ptr %49, ptr %50, align 8
  %51 = load ptr, ptr %4, align 8
  %52 = getelementptr inbounds nuw %struct._DOT11DECRYPT_KEY_ITEM, ptr %51, i32 0, i32 1
  %53 = getelementptr inbounds nuw %struct.DOT11DECRYPT_KEY_ITEMDATA_WPA, ptr %52, i32 0, i32 5
  %54 = load i8, ptr %53, align 1
  %55 = zext i8 %54 to i32
  %56 = call i32 @Dot11DecryptGetTkLen(i32 noundef %55)
  %57 = sdiv i32 %56, 8
  store i32 %57, ptr %6, align 4
  br label %58

58:                                               ; preds = %27, %20
  %59 = load i32, ptr %6, align 4
  store i32 %59, ptr %3, align 4
  store i32 1, ptr %7, align 4
  br label %60

60:                                               ; preds = %58, %13
  call void @llvm.lifetime.end.p0(i64 4, ptr %6) #16
  %61 = load i32, ptr %3, align 4
  ret i32 %61
}