; Function Attrs: null_pointer_is_valid sspstrong uwtable
define hidden range(i32 0, 33) i32 @Dot11DecryptGetTK(ptr noundef %0, ptr noundef writeonly captures(address_is_null) %1) local_unnamed_addr #0 {
  %3 = icmp ne ptr %0, null
  %4 = icmp ne ptr %1, null
  %or.cond = and i1 %3, %4
  br i1 %or.cond, label %5, label %Dot11DecryptGetTkLen.exit

5:                                                ; preds = %2
  %6 = load i8, ptr %0, align 8
  %7 = icmp eq i8 %6, 100
  br i1 %7, label %8, label %10

8:                                                ; preds = %5
  %9 = getelementptr i8, ptr %0, i64 88
  store ptr %9, ptr %1, align 8
  br label %Dot11DecryptGetTkLen.exit

10:                                               ; preds = %5
  %11 = getelementptr inbounds nuw i8, ptr %0, i64 56
  %12 = getelementptr inbounds nuw i8, ptr %0, i64 146
  %13 = load i8, ptr %12, align 2
  %switch.tableidx = add i8 %13, -1
  %14 = icmp ult i8 %switch.tableidx, 18
  br i1 %14, label %switch.hole_check, label %15

15:                                               ; preds = %switch.hole_check, %10
  tail call void (ptr, i32, ptr, i64, ptr, ptr, ...) @ws_log_full(ptr noundef nonnull @.str, i32 noundef 5, ptr noundef nonnull @.str.1, i64 noundef 2385, ptr noundef nonnull @__func__.Dot11DecryptGetKckLen, ptr noundef nonnull @.str.49)
  br label %Dot11DecryptGetKckLen.exit

switch.hole_check:                                ; preds = %10
  %switch.maskindex = zext nneg i8 %switch.tableidx to i32
  %switch.shifted = lshr i32 138687, %switch.maskindex
  %switch.lobit = trunc i32 %switch.shifted to i1
  br i1 %switch.lobit, label %switch.lookup, label %15

switch.lookup:                                    ; preds = %switch.hole_check
  %16 = zext nneg i8 %switch.tableidx to i64
  %switch.gep = getelementptr inbounds nuw [18 x i8], ptr @switch.table.Dot11DecryptGetTK, i64 0, i64 %16
  %17 = zext nneg i8 %switch.tableidx to i64
  %switch.gep21 = getelementptr inbounds nuw [18 x i64], ptr @switch.table.Dot11DecryptScanFtAssocForKeys.12, i64 0, i64 %17
  %switch.load22 = load i64, ptr %switch.gep21, align 8
  br label %Dot11DecryptGetKckLen.exit

Dot11DecryptGetKckLen.exit:                       ; preds = %switch.lookup, %15
  %.in = phi ptr [ %12, %15 ], [ %switch.gep, %switch.lookup ]
  %.0.i = phi i64 [ 0, %15 ], [ %switch.load22, %switch.lookup ]
  %18 = load i8, ptr %.in, align 1
  %switch.tableidx24 = add i8 %18, -1
  %19 = icmp ult i8 %switch.tableidx24, 18
  br i1 %19, label %switch.hole_check25, label %20

20:                                               ; preds = %switch.hole_check25, %Dot11DecryptGetKckLen.exit
  tail call void (ptr, i32, ptr, i64, ptr, ptr, ...) @ws_log_full(ptr noundef nonnull @.str, i32 noundef 5, ptr noundef nonnull @.str.1, i64 noundef 2408, ptr noundef nonnull @__func__.Dot11DecryptGetKekLen, ptr noundef nonnull @.str.49)
  br label %Dot11DecryptGetKekLen.exit

switch.hole_check25:                              ; preds = %Dot11DecryptGetKckLen.exit
  %switch.maskindex27 = zext nneg i8 %switch.tableidx24 to i32
  %switch.shifted28 = lshr i32 138687, %switch.maskindex27
  %switch.lobit29 = trunc i32 %switch.shifted28 to i1
  br i1 %switch.lobit29, label %switch.lookup26, label %20

switch.lookup26:                                  ; preds = %switch.hole_check25
  %21 = zext nneg i8 %switch.tableidx24 to i64
  %switch.gep30 = getelementptr inbounds nuw [18 x i64], ptr @switch.table.Dot11DecryptRsnaMng.10, i64 0, i64 %21
  %switch.load31 = load i64, ptr %switch.gep30, align 8
  br label %Dot11DecryptGetKekLen.exit

Dot11DecryptGetKekLen.exit:                       ; preds = %switch.lookup26, %20
  %.0.i15 = phi i64 [ 0, %20 ], [ %switch.load31, %switch.lookup26 ]
  %22 = getelementptr i8, ptr %11, i64 %.0.i
  %23 = getelementptr i8, ptr %22, i64 %.0.i15
  store ptr %23, ptr %1, align 8
  %24 = getelementptr inbounds nuw i8, ptr %0, i64 147
  %25 = load i8, ptr %24, align 1
  %switch.tableidx33 = add i8 %25, -1
  %26 = icmp ult i8 %switch.tableidx33, 13
  br i1 %26, label %switch.lookup32, label %27

27:                                               ; preds = %Dot11DecryptGetKekLen.exit
  tail call void (ptr, i32, ptr, i64, ptr, ptr, ...) @ws_log_full(ptr noundef nonnull @.str, i32 noundef 5, ptr noundef nonnull @.str.1, i64 noundef 2362, ptr noundef nonnull @__func__.Dot11DecryptGetTkLen, ptr noundef nonnull @.str.48)
  br label %Dot11DecryptGetTkLen.exit

switch.lookup32:                                  ; preds = %Dot11DecryptGetKekLen.exit
  %28 = zext nneg i8 %switch.tableidx33 to i64
  %switch.gep34 = getelementptr inbounds nuw [13 x i32], ptr @switch.table.Dot11DecryptRsnaMng.11, i64 0, i64 %28
  %switch.load35 = load i32, ptr %switch.gep34, align 4
  br label %Dot11DecryptGetTkLen.exit

Dot11DecryptGetTkLen.exit:                        ; preds = %switch.lookup32, %27, %8, %2
  %.012 = phi i32 [ 0, %2 ], [ 16, %8 ], [ 0, %27 ], [ %switch.load35, %switch.lookup32 ]
  ret i32 %.012
}